; Function Attrs: mustprogress uwtable
define hidden noundef zeroext i1 @_ZN4cvc58internal6theory11quantifiers13QModelBuilder11optUseModelEv(ptr noundef nonnull align 8 dereferenceable(176) %this) unnamed_addr #3 align 2 {
entry:
  %call = tail call noundef nonnull align 8 dereferenceable(392) ptr @_ZNK4cvc58internal6EnvObj7optionsEv(ptr noundef nonnull align 8 dereferenceable(16) %this)
  %quantifiers = getelementptr inbounds i8, ptr %call, i64 328
  %0 = load ptr, ptr %quantifiers, align 8
  %fmfMbqiMode = getelementptr inbounds i8, ptr %0, i64 168
  %1 = load i32, ptr %fmfMbqiMode, align 8
  %cmp.not = icmp eq i32 %1, 0
  br i1 %cmp.not, label %lor.lhs.false, label %lor.end

lor.lhs.false:                                    ; preds = %entry
  %call2 = tail call noundef nonnull align 8 dereferenceable(392) ptr @_ZNK4cvc58internal6EnvObj7optionsEv(ptr noundef nonnull align 8 dereferenceable(16) %this)
  %quantifiers3 = getelementptr inbounds i8, ptr %call2, i64 328
  %2 = load ptr, ptr %quantifiers3, align 8
  %fmfBound = getelementptr inbounds i8, ptr %2, i64 155
  %3 = load i8, ptr %fmfBound, align 1
  %4 = and i8 %3, 1
  %tobool.not = icmp eq i8 %4, 0
  br i1 %tobool.not, label %lor.rhs, label %lor.end

lor.rhs:                                          ; preds = %lor.lhs.false
  %call4 = tail call noundef nonnull align 8 dereferenceable(392) ptr @_ZNK4cvc58internal6EnvObj7optionsEv(ptr noundef nonnull align 8 dereferenceable(16) %this)
  %strings = getelementptr inbounds i8, ptr %call4, i64 360
  %5 = load ptr, ptr %strings, align 8
  %stringExp = getelementptr inbounds i8, ptr %5, i64 47
  %6 = load i8, ptr %stringExp, align 1
  %7 = and i8 %6, 1
  %tobool5 = icmp ne i8 %7, 0
  br label %lor.end

lor.end:                                          ; preds = %lor.rhs, %lor.lhs.false, %entry
  %8 = phi i1 [ true, %lor.lhs.false ], [ true, %entry ], [ %tobool5, %lor.rhs ]
  ret i1 %8
}